; Function Attrs: mustprogress nofree norecurse nosync nounwind willreturn memory(argmem: read) uwtable
define internal { double, double } @_ZNK6Assimp3IFC12_GLOBAL__N_18PolyLine18GetParametricRangeEv(ptr noundef nonnull readonly align 8 captures(none) dereferenceable(48) %0) unnamed_addr #12 align 2 {
  %2 = getelementptr inbounds nuw i8, ptr %0, i64 24
  %3 = getelementptr inbounds nuw i8, ptr %0, i64 32
  %4 = load ptr, ptr %3, align 8
  %5 = load ptr, ptr %2, align 8
  %6 = ptrtoint ptr %4 to i64
  %7 = ptrtoint ptr %5 to i64
  %8 = sub i64 %6, %7
  %9 = sdiv exact i64 %8, 24
  %10 = add nsw i64 %9, -1
  %11 = uitofp i64 %10 to double
  %.fca.1.insert.i = insertvalue { double, double } { double 0.000000e+00, double poison }, double %11, 1
  ret { double, double } %.fca.1.insert.i
}